; Function Attrs: nounwind uwtable
define internal void @_set_pending_job_id(i32 noundef %0) #0 {
  %2 = tail call i32 @get_log_level() #9
  %3 = icmp sgt i32 %2, 5
  br i1 %3, label %4, label %5

4:                                                ; preds = %1
  tail call void (i32, ptr, ...) @log_var(i32 noundef 6, ptr noundef nonnull @.str.23, i32 noundef %0) #9
  br label %5

5:                                                ; preds = %4, %1
  store i32 %0, ptr @pending_job_id, align 4
  ret void
}